(dp0
S'data'
p1
(lp2
(dp3
S'latitude'
p4
F22.57935304444445
sS'pm2d5'
p5
F0.6
sS'logitude'
p6
F114.1194279777778
sa(dp7
g4
F22.585414315789475
sg5
F25.526315789473685
sg6
F113.9490003157895
sa(dp8
g4
F22.58916134615385
sg5
F25.73076923076923
sg6
F113.94094003846155
sa(dp9
g4
F22.5916412
sg5
F47.6
sg6
F114.01608879999999
sa(dp10
g4
F22.556741600000002
sg5
F20.8
sg6
F113.96014380000001
sa(dp11
g4
F22.538773857142854
sg5
F34.357142857142854
sg6
F114.11828407142855
sa(dp12
g4
F22.538084999999995
sg5
F47.416666666666664
sg6
F114.01446550000003
sa(dp13
g4
F22.574583000000004
sg5
F0.75
sg6
F114.098587
sa(dp14
g4
F22.507411223300956
sg5
F18.106796116504853
sg6
F113.94359113592226
sa(dp15
g4
F22.5767275
sg5
F28.0
sg6
F114.11582066666666
sa(dp16
g4
F22.60656714285714
sg5
F20.571428571428573
sg6
F113.93194014285713
sa(dp17
g4
F22.534459666666667
sg5
F43.0
sg6
F114.009359
sa(dp18
g4
F22.55730583333333
sg5
F20.333333333333332
sg6
F113.97023133333333
sa(dp19
g4
F22.585888960396076
sg5
F23.826732673267326
sg6
F113.94399299009895
sa(dp20
g4
F22.55668144444444
sg5
F21.444444444444443
sg6
F113.95512466666666
sa(dp21
g4
F22.579603545454543
sg5
F0.6363636363636364
sg6
F114.12970872727273
sa(dp22
g4
F22.593723599999997
sg5
F0.4
sg6
F114.1024338
sa(dp23
g4
F22.560383
sg5
F45.0
sg6
F114.024734
sa(dp24
g4
F22.57059557894737
sg5
F22.263157894736842
sg6
F114.04306984210531
sa(dp25
g4
F22.567165269841265
sg5
F23.77777777777778
sg6
F114.03985793650794
sa(dp26
g4
F22.556103833333335
sg5
F34.0
sg6
F114.15063108333334
sa(dp27
g4
F22.570113833333334
sg5
F21.333333333333332
sg6
F114.06155016666666
sa(dp28
g4
F22.538049125000004
sg5
F33.75
sg6
F114.09477037499998
sa(dp29
g4
F22.537649000000002
sg5
F32.25
sg6
F114.109684
sa(dp30
g4
F22.57715433333333
sg5
F0.6666666666666666
sg6
F114.09911933333332
sa(dp31
g4
F22.585810125000005
sg5
F24.875
sg6
F114.128462375
sa(dp32
g4
F22.52356275
sg5
F18.6875
sg6
F113.95730618749997
sa(dp33
g4
F22.52446199999999
sg5
F17.775510204081634
sg6
F113.94853200000003
sa(dp34
g4
F22.505355555555564
sg5
F17.166666666666668
sg6
F113.94508205555556
sa(dp35
g4
F22.57114275
sg5
F26.75
sg6
F114.08339525000001
sas.